target datalayout = "e-m:e-p270:32:32-p271:32:32-p272:64:64-i64:64-i128:128-f80:128-n8:16:32:64-S128"
target triple = "x86_64-pc-linux-gnu"

%"struct.std::_Rb_tree_key_compare" = type { %"struct.std::less" }
%"struct.std::less" = type { i8 }
%"struct.std::_Rb_tree_header" = type { %"struct.std::_Rb_tree_node_base", i64 }
%"struct.std::_Rb_tree_node_base" = type { i32, ptr, ptr, ptr }
%"struct.casadi::CvodesMemory" = type { %"struct.casadi::SundialsMemory.base", ptr, ptr, i32, double, double }
%"struct.casadi::SundialsMemory.base" = type <{ %"struct.casadi::IntegratorMemory", ptr, ptr, ptr, ptr, ptr, ptr, i8, [7 x i8], ptr, ptr, ptr, ptr, ptr, ptr, ptr, ptr, i64, i64, i64, i64, i32, i32, double, double, double, double, i64, i64, i64, i64, i64, i64, i32, i32, double, double, double, double, i64, i64, i64, i64, i64, i64, i64, i64, ptr, ptr, i32, [4 x i8], ptr, i32 }>
%"struct.casadi::IntegratorMemory" = type { %"struct.casadi::OracleMemory", i64, double, double, double }
%"struct.casadi::OracleMemory" = type { %"struct.casadi::FunctionMemory", ptr, ptr, ptr, ptr, %"class.std::vector.64" }
%"struct.casadi::FunctionMemory" = type { %"struct.casadi::ProtoFunctionMemory" }
%"struct.casadi::ProtoFunctionMemory" = type { %"class.std::map.59", ptr }
%"class.std::map.59" = type { %"class.std::_Rb_tree.60" }
%"class.std::_Rb_tree.60" = type { %"struct.std::_Rb_tree<std::__cxx11::basic_string<char>, std::pair<const std::__cxx11::basic_string<char>, casadi::FStats>, std::_Select1st<std::pair<const std::__cxx11::basic_string<char>, casadi::FStats>>, std::less<std::__cxx11::basic_string<char>>>::_Rb_tree_impl" }
%"struct.std::_Rb_tree<std::__cxx11::basic_string<char>, std::pair<const std::__cxx11::basic_string<char>, casadi::FStats>, std::_Select1st<std::pair<const std::__cxx11::basic_string<char>, casadi::FStats>>, std::less<std::__cxx11::basic_string<char>>>::_Rb_tree_impl" = type { %"struct.std::_Rb_tree_key_compare", %"struct.std::_Rb_tree_header" }
%"class.std::vector.64" = type { %"struct.std::_Vector_base.65" }
%"struct.std::_Vector_base.65" = type { %"struct.std::_Vector_base<casadi::LocalOracleMemory *, std::allocator<casadi::LocalOracleMemory *>>::_Vector_impl" }
%"struct.std::_Vector_base<casadi::LocalOracleMemory *, std::allocator<casadi::LocalOracleMemory *>>::_Vector_impl" = type { %"struct.std::_Vector_base<casadi::LocalOracleMemory *, std::allocator<casadi::LocalOracleMemory *>>::_Vector_impl_data" }
%"struct.std::_Vector_base<casadi::LocalOracleMemory *, std::allocator<casadi::LocalOracleMemory *>>::_Vector_impl_data" = type { ptr, ptr, ptr }
%struct._generic_N_Vector = type { ptr, ptr }
%struct._N_VectorContent_Serial = type { i64, i32, ptr }

@_ZTISt9exception = external constant ptr
@.str.103 = private unnamed_addr constant [17 x i8] c"jtimesB failed: \00", align 1

; Function Attrs: mustprogress uwtable
define noundef i32 @_ZN6casadi15CvodesInterface7jtimesBEP17_generic_N_VectorS2_dS2_S2_S2_PvS2_(ptr noundef %0, ptr noundef %1, double noundef %2, ptr noundef %3, ptr noundef %4, ptr noundef %5, ptr noundef %6, ptr noundef %7) #4 align 2 personality ptr @__gxx_personality_v0 {
  %9 = alloca i32, align 4
  %10 = alloca ptr, align 8
  %11 = alloca ptr, align 8
  %12 = alloca double, align 8
  %13 = alloca ptr, align 8
  %14 = alloca ptr, align 8
  %15 = alloca ptr, align 8
  %16 = alloca ptr, align 8
  %17 = alloca ptr, align 8
  %18 = alloca ptr, align 8
  %19 = alloca ptr, align 8
  %20 = alloca i32, align 4
  %21 = alloca ptr, align 8
  %22 = alloca ptr, align 8
  store ptr %0, ptr %10, align 8
  store ptr %1, ptr %11, align 8
  store double %2, ptr %12, align 8
  store ptr %3, ptr %13, align 8
  store ptr %4, ptr %14, align 8
  store ptr %5, ptr %15, align 8
  store ptr %6, ptr %16, align 8
  store ptr %7, ptr %17, align 8
  %23 = load ptr, ptr %16, align 8
  %24 = invoke noundef ptr @_ZN6casadi15CvodesInterface6to_memEPv(ptr noundef %23)
          to label %25 unwind label %51

25:                                               ; preds = %8
  store ptr %24, ptr %18, align 8
  %26 = load ptr, ptr %18, align 8
  %27 = getelementptr inbounds %"struct.casadi::CvodesMemory", ptr %26, i32 0, i32 1
  %28 = load ptr, ptr %27, align 8
  store ptr %28, ptr %21, align 8
  %29 = load ptr, ptr %21, align 8
  %30 = load ptr, ptr %18, align 8
  %31 = load double, ptr %12, align 8
  %32 = load ptr, ptr %13, align 8
  %33 = getelementptr inbounds %struct._generic_N_Vector, ptr %32, i32 0, i32 0
  %34 = load ptr, ptr %33, align 8
  %35 = getelementptr inbounds %struct._N_VectorContent_Serial, ptr %34, i32 0, i32 2
  %36 = load ptr, ptr %35, align 8
  %37 = load ptr, ptr %10, align 8
  %38 = getelementptr inbounds %struct._generic_N_Vector, ptr %37, i32 0, i32 0
  %39 = load ptr, ptr %38, align 8
  %40 = getelementptr inbounds %struct._N_VectorContent_Serial, ptr %39, i32 0, i32 2
  %41 = load ptr, ptr %40, align 8
  %42 = load ptr, ptr %11, align 8
  %43 = getelementptr inbounds %struct._generic_N_Vector, ptr %42, i32 0, i32 0
  %44 = load ptr, ptr %43, align 8
  %45 = getelementptr inbounds %struct._N_VectorContent_Serial, ptr %44, i32 0, i32 2
  %46 = load ptr, ptr %45, align 8
  %47 = invoke noundef i32 @_ZNK6casadi17SundialsInterface9calc_daeBEPNS_14SundialsMemoryEdPKdS4_S4_S4_S4_PdS5_(ptr noundef nonnull align 8 dereferenceable(2120) %29, ptr noundef %30, double noundef %31, ptr noundef %36, ptr noundef null, ptr noundef %41, ptr noundef null, ptr noundef null, ptr noundef %46, ptr noundef null)
          to label %48 unwind label %51

48:                                               ; preds = %25
  %49 = icmp ne i32 %47, 0
  br i1 %49, label %50, label %75

50:                                               ; preds = %48
  store i32 1, ptr %9, align 4
  br label %82

51:                                               ; preds = %25, %8
  %52 = landingpad { ptr, i32 }
          catch ptr @_ZTISt9exception
  %53 = extractvalue { ptr, i32 } %52, 0
  store ptr %53, ptr %19, align 8
  %54 = extractvalue { ptr, i32 } %52, 1
  store i32 %54, ptr %20, align 4
  br label %55

55:                                               ; preds = %51
  %56 = load i32, ptr %20, align 4
  %57 = call i32 @llvm.eh.typeid.for(ptr @_ZTISt9exception) #3
  %58 = icmp eq i32 %56, %57
  br i1 %58, label %59, label %84

59:                                               ; preds = %55
  %60 = load ptr, ptr %19, align 8
  %61 = call ptr @__cxa_begin_catch(ptr %60) #3
  store ptr %61, ptr %22, align 8
  %62 = invoke noundef nonnull align 8 dereferenceable(8) ptr @_ZN6casadi4uerrEv()
          to label %63 unwind label %76

63:                                               ; preds = %59
  %64 = invoke noundef nonnull align 8 dereferenceable(8) ptr @_ZStlsISt11char_traitsIcEERSt13basic_ostreamIcT_ES5_PKc(ptr noundef nonnull align 8 dereferenceable(8) %62, ptr noundef @.str.103)
          to label %65 unwind label %76

65:                                               ; preds = %63
  %66 = load ptr, ptr %22, align 8
  %67 = load ptr, ptr %66, align 8
  %68 = getelementptr inbounds ptr, ptr %67, i64 2
  %69 = load ptr, ptr %68, align 8
  %70 = call noundef ptr %69(ptr noundef nonnull align 8 dereferenceable(8) %66) #3
  %71 = invoke noundef nonnull align 8 dereferenceable(8) ptr @_ZStlsISt11char_traitsIcEERSt13basic_ostreamIcT_ES5_PKc(ptr noundef nonnull align 8 dereferenceable(8) %64, ptr noundef %70)
          to label %72 unwind label %76

72:                                               ; preds = %65
  %73 = invoke noundef nonnull align 8 dereferenceable(8) ptr @_ZNSolsEPFRSoS_E(ptr noundef nonnull align 8 dereferenceable(8) %71, ptr noundef @_ZSt4endlIcSt11char_traitsIcEERSt13basic_ostreamIT_T0_ES6_)
          to label %74 unwind label %76

74:                                               ; preds = %72
  store i32 -1, ptr %9, align 4
  call void @__cxa_end_catch()
  br label %82

75:                                               ; preds = %48
  store i32 0, ptr %9, align 4
  br label %82

76:                                               ; preds = %72, %65, %63, %59
  %77 = landingpad { ptr, i32 }
          cleanup
  %78 = extractvalue { ptr, i32 } %77, 0
  store ptr %78, ptr %19, align 8
  %79 = extractvalue { ptr, i32 } %77, 1
  store i32 %79, ptr %20, align 4
  invoke void @__cxa_end_catch()
          to label %80 unwind label %89

80:                                               ; preds = %76
  br label %84

81:                                               ; No predecessors!
  call void @llvm.trap()
  unreachable

82:                                               ; preds = %75, %74, %50
  %83 = load i32, ptr %9, align 4
  ret i32 %83

84:                                               ; preds = %80, %55
  %85 = load ptr, ptr %19, align 8
  %86 = load i32, ptr %20, align 4
  %87 = insertvalue { ptr, i32 } poison, ptr %85, 0
  %88 = insertvalue { ptr, i32 } %87, i32 %86, 1
  resume { ptr, i32 } %88

89:                                               ; preds = %76
  %90 = landingpad { ptr, i32 }
          catch ptr null
  %91 = extractvalue { ptr, i32 } %90, 0
  call void @__clang_call_terminate(ptr %91) #17
  unreachable
}