; Function Attrs: mustprogress uwtable
define noundef i32 @_ZN6casadi15CvodesInterface7jtimesBEP17_generic_N_VectorS2_dS2_S2_S2_PvS2_(ptr nocapture noundef readonly %0, ptr nocapture noundef readonly %1, double noundef %2, ptr nocapture noundef readonly %3, ptr nocapture readnone %4, ptr nocapture readnone %5, ptr noundef %6, ptr nocapture readnone %7) #3 align 2 personality ptr @__gxx_personality_v0 {
  %9 = invoke noundef ptr @_ZN6casadi15CvodesInterface6to_memEPv(ptr noundef %6)
          to label %10 unwind label %24

10:                                               ; preds = %8
  %11 = getelementptr inbounds i8, ptr %9, i64 528
  %12 = load ptr, ptr %11, align 8
  %13 = load ptr, ptr %3, align 8
  %14 = getelementptr inbounds i8, ptr %13, i64 16
  %15 = load ptr, ptr %14, align 8
  %16 = load ptr, ptr %0, align 8
  %17 = getelementptr inbounds i8, ptr %16, i64 16
  %18 = load ptr, ptr %17, align 8
  %19 = load ptr, ptr %1, align 8
  %20 = getelementptr inbounds i8, ptr %19, i64 16
  %21 = load ptr, ptr %20, align 8
  %22 = invoke noundef i32 @_ZNK6casadi17SundialsInterface9calc_daeBEPNS_14SundialsMemoryEdPKdS4_S4_S4_S4_PdS5_(ptr noundef nonnull align 8 dereferenceable(2120) %12, ptr noundef nonnull %9, double noundef %2, ptr noundef %15, ptr noundef null, ptr noundef %18, ptr noundef null, ptr noundef null, ptr noundef %21, ptr noundef null)
          to label %23 unwind label %24

23:                                               ; preds = %10
  %.not = icmp ne i32 %22, 0
  %. = zext i1 %.not to i32
  br label %46

24:                                               ; preds = %10, %8
  %25 = landingpad { ptr, i32 }
          catch ptr @_ZTISt9exception
  %26 = extractvalue { ptr, i32 } %25, 1
  %27 = tail call i32 @llvm.eh.typeid.for(ptr nonnull @_ZTISt9exception) #20
  %28 = icmp eq i32 %26, %27
  br i1 %28, label %29, label %47

29:                                               ; preds = %24
  %30 = extractvalue { ptr, i32 } %25, 0
  %31 = tail call ptr @__cxa_begin_catch(ptr %30) #20
  %32 = invoke noundef nonnull align 8 dereferenceable(8) ptr @_ZN6casadi4uerrEv()
          to label %33 unwind label %44

33:                                               ; preds = %29
  %34 = invoke noundef nonnull align 8 dereferenceable(8) ptr @_ZStlsISt11char_traitsIcEERSt13basic_ostreamIcT_ES5_PKc(ptr noundef nonnull align 8 dereferenceable(8) %32, ptr noundef nonnull @.str.103)
          to label %35 unwind label %44

35:                                               ; preds = %33
  %36 = load ptr, ptr %31, align 8
  %37 = getelementptr inbounds i8, ptr %36, i64 16
  %38 = load ptr, ptr %37, align 8
  %39 = tail call noundef ptr %38(ptr noundef nonnull align 8 dereferenceable(8) %31) #20
  %40 = invoke noundef nonnull align 8 dereferenceable(8) ptr @_ZStlsISt11char_traitsIcEERSt13basic_ostreamIcT_ES5_PKc(ptr noundef nonnull align 8 dereferenceable(8) %34, ptr noundef %39)
          to label %41 unwind label %44

41:                                               ; preds = %35
  %42 = invoke noundef nonnull align 8 dereferenceable(8) ptr @_ZNSolsEPFRSoS_E(ptr noundef nonnull align 8 dereferenceable(8) %40, ptr noundef nonnull @_ZSt4endlIcSt11char_traitsIcEERSt13basic_ostreamIT_T0_ES6_)
          to label %43 unwind label %44

43:                                               ; preds = %41
  tail call void @__cxa_end_catch()
  br label %46

44:                                               ; preds = %41, %35, %33, %29
  %45 = landingpad { ptr, i32 }
          cleanup
  invoke void @__cxa_end_catch()
          to label %47 unwind label %48

46:                                               ; preds = %23, %43
  %.0 = phi i32 [ -1, %43 ], [ %., %23 ]
  ret i32 %.0

47:                                               ; preds = %44, %24
  %.merged = phi { ptr, i32 } [ %45, %44 ], [ %25, %24 ]
  resume { ptr, i32 } %.merged

48:                                               ; preds = %44
  %49 = landingpad { ptr, i32 }
          catch ptr null
  %50 = extractvalue { ptr, i32 } %49, 0
  tail call void @__clang_call_terminate(ptr %50) #23
  unreachable
}